target datalayout = "e-m:e-p270:32:32-p271:32:32-p272:64:64-i64:64-i128:128-f80:128-n8:16:32:64-S128"
target triple = "x86_64-pc-linux-gnu"

%struct.SResource = type { ptr, i8, i8, i32, i32, i32, i32, i32, ptr, %struct.UString }
%struct.UString = type { ptr, i32, i32 }
%struct.SRBRoot = type { ptr, ptr, i32, i32, i8, i8, i8, ptr, ptr, i32, i32, i32, i32, i32, %"class.icu_77::UnicodeString", i32, ptr, i32, i32, i32, ptr }
%"class.icu_77::UnicodeString" = type { %"class.icu_77::Replaceable", %"union.icu_77::UnicodeString::StackBufferOrFields" }
%"class.icu_77::Replaceable" = type { %"class.icu_77::UObject" }
%"class.icu_77::UObject" = type { ptr }
%"union.icu_77::UnicodeString::StackBufferOrFields" = type { %struct.anon.0, [32 x i8] }
%struct.anon.0 = type { i16, i32, i32, ptr }
%class.ContainerResource = type { %struct.SResource, i32, ptr }
%class.TableResource = type { %class.ContainerResource, i8, ptr }

@_ZL14gFormatVersion = internal global i32 3, align 4

; Function Attrs: inlinehint mustprogress nounwind uwtable
define linkonce_odr dso_local noundef i32 @_ZNK6icu_7713UnicodeString14getShortLengthEv(ptr noundef nonnull align 8 dereferenceable(64) %0) #9 comdat align 2 {
  %2 = alloca ptr, align 8
  store ptr %0, ptr %2, align 8, !tbaa !74
  %3 = load ptr, ptr %2, align 8
  %4 = getelementptr inbounds nuw %"class.icu_77::UnicodeString", ptr %3, i32 0, i32 1
  %5 = getelementptr inbounds nuw %struct.anon.0, ptr %4, i32 0, i32 0
  %6 = load i16, ptr %5, align 8, !tbaa !22
  %7 = sext i16 %6 to i32
  %8 = ashr i32 %7, 5
  ret i32 %8
}

; Function Attrs: inlinehint mustprogress nounwind uwtable
define linkonce_odr dso_local noundef signext i8 @_ZNK6icu_7713UnicodeString14hasShortLengthEv(ptr noundef nonnull align 8 dereferenceable(64) %0) #9 comdat align 2 {
  %2 = alloca ptr, align 8
  store ptr %0, ptr %2, align 8, !tbaa !74
  %3 = load ptr, ptr %2, align 8
  %4 = getelementptr inbounds nuw %"class.icu_77::UnicodeString", ptr %3, i32 0, i32 1
  %5 = getelementptr inbounds nuw %struct.anon.0, ptr %4, i32 0, i32 0
  %6 = load i16, ptr %5, align 8, !tbaa !22
  %7 = sext i16 %6 to i32
  %8 = icmp sge i32 %7, 0
  %9 = zext i1 %8 to i8
  ret i8 %9
}

; Function Attrs: mustprogress uwtable
define dso_local void @_ZN17ContainerResource13writeAllRes16EP7SRBRoot(ptr noundef nonnull align 8 dereferenceable(72) %0, ptr noundef %1) #5 align 2 {
  %3 = alloca ptr, align 8
  %4 = alloca ptr, align 8
  %5 = alloca ptr, align 8
  store ptr %0, ptr %3, align 8, !tbaa !53
  store ptr %1, ptr %4, align 8, !tbaa !39
  %6 = load ptr, ptr %3, align 8
  call void @llvm.lifetime.start.p0(i64 8, ptr %5) #3
  %7 = getelementptr inbounds nuw %class.ContainerResource, ptr %6, i32 0, i32 2
  %8 = load ptr, ptr %7, align 8, !tbaa !55
  store ptr %8, ptr %5, align 8, !tbaa !24
  br label %9

9:                                                ; preds = %21, %2
  %10 = load ptr, ptr %5, align 8, !tbaa !24
  %11 = icmp ne ptr %10, null
  br i1 %11, label %13, label %12

12:                                               ; preds = %9
  call void @llvm.lifetime.end.p0(i64 8, ptr %5) #3
  br label %25

13:                                               ; preds = %9
  %14 = load ptr, ptr %4, align 8, !tbaa !39
  %15 = getelementptr inbounds nuw %struct.SRBRoot, ptr %14, i32 0, i32 14
  %16 = load ptr, ptr %5, align 8, !tbaa !24
  %17 = getelementptr inbounds nuw %struct.SResource, ptr %16, i32 0, i32 4
  %18 = load i32, ptr %17, align 8, !tbaa !34
  %19 = trunc i32 %18 to i16
  %20 = call noundef nonnull align 8 dereferenceable(64) ptr @_ZN6icu_7713UnicodeString6appendEDs(ptr noundef nonnull align 8 dereferenceable(64) %15, i16 noundef zeroext %19)
  br label %21

21:                                               ; preds = %13
  %22 = load ptr, ptr %5, align 8, !tbaa !24
  %23 = getelementptr inbounds nuw %struct.SResource, ptr %22, i32 0, i32 8
  %24 = load ptr, ptr %23, align 8, !tbaa !38
  store ptr %24, ptr %5, align 8, !tbaa !24
  br label %9, !llvm.loop !124

25:                                               ; preds = %12
  %26 = getelementptr inbounds nuw %struct.SResource, ptr %6, i32 0, i32 2
  store i8 1, ptr %26, align 1, !tbaa !32
  ret void
}

; Function Attrs: inlinehint mustprogress uwtable
define linkonce_odr dso_local noundef nonnull align 8 dereferenceable(64) ptr @_ZN6icu_7713UnicodeString6appendEDs(ptr noundef nonnull align 8 dereferenceable(64) %0, i16 noundef zeroext %1) #11 comdat align 2 {
  %3 = alloca ptr, align 8
  %4 = alloca i16, align 2
  store ptr %0, ptr %3, align 8, !tbaa !74
  store i16 %1, ptr %4, align 2, !tbaa !113
  %5 = load ptr, ptr %3, align 8
  %6 = call noundef nonnull align 8 dereferenceable(64) ptr @_ZN6icu_7713UnicodeString8doAppendEPKDsii(ptr noundef nonnull align 8 dereferenceable(64) %5, ptr noundef %4, i32 noundef 0, i32 noundef 1)
  ret ptr %6
}

; Function Attrs: inlinehint mustprogress uwtable
define linkonce_odr dso_local noundef i32 @_ZNK6icu_7713UnicodeString6lengthEv(ptr noundef nonnull align 8 dereferenceable(64) %0) #11 comdat align 2 {
  %2 = alloca ptr, align 8
  store ptr %0, ptr %2, align 8, !tbaa !74
  %3 = load ptr, ptr %2, align 8
  %4 = call noundef signext i8 @_ZNK6icu_7713UnicodeString14hasShortLengthEv(ptr noundef nonnull align 8 dereferenceable(64) %3)
  %5 = icmp ne i8 %4, 0
  br i1 %5, label %6, label %8

6:                                                ; preds = %1
  %7 = call noundef i32 @_ZNK6icu_7713UnicodeString14getShortLengthEv(ptr noundef nonnull align 8 dereferenceable(64) %3)
  br label %12

8:                                                ; preds = %1
  %9 = getelementptr inbounds nuw %"class.icu_77::UnicodeString", ptr %3, i32 0, i32 1
  %10 = getelementptr inbounds nuw %struct.anon.0, ptr %9, i32 0, i32 1
  %11 = load i32, ptr %10, align 4, !tbaa !22
  br label %12

12:                                               ; preds = %8, %6
  %13 = phi i32 [ %7, %6 ], [ %11, %8 ]
  ret i32 %13
}

; Function Attrs: mustprogress uwtable
define dso_local void @_ZN13TableResource13handleWrite16EP7SRBRoot(ptr noundef nonnull align 8 dereferenceable(88) %0, ptr noundef %1) unnamed_addr #5 align 2 {
  %3 = alloca ptr, align 8
  %4 = alloca ptr, align 8
  %5 = alloca i32, align 4
  %6 = alloca i32, align 4
  %7 = alloca ptr, align 8
  %8 = alloca ptr, align 8
  store ptr %0, ptr %3, align 8, !tbaa !59
  store ptr %1, ptr %4, align 8, !tbaa !39
  %9 = load ptr, ptr %3, align 8
  %10 = getelementptr inbounds nuw %class.ContainerResource, ptr %9, i32 0, i32 1
  %11 = load i32, ptr %10, align 8, !tbaa !61
  %12 = icmp eq i32 %11, 0
  br i1 %12, label %13, label %19

13:                                               ; preds = %2
  %14 = load i32, ptr @_ZL14gFormatVersion, align 4, !tbaa !23
  %15 = icmp sgt i32 %14, 1
  br i1 %15, label %16, label %19

16:                                               ; preds = %13
  %17 = getelementptr inbounds nuw %struct.SResource, ptr %9, i32 0, i32 3
  store i32 536870912, ptr %17, align 4, !tbaa !33
  %18 = getelementptr inbounds nuw %struct.SResource, ptr %9, i32 0, i32 2
  store i8 1, ptr %18, align 1, !tbaa !32
  br label %106

19:                                               ; preds = %13, %2
  call void @llvm.lifetime.start.p0(i64 4, ptr %5) #3
  store i32 0, ptr %5, align 4, !tbaa !23
  call void @llvm.lifetime.start.p0(i64 4, ptr %6) #3
  store i32 0, ptr %6, align 4, !tbaa !23
  call void @llvm.lifetime.start.p0(i64 8, ptr %7) #3
  %20 = getelementptr inbounds nuw %class.ContainerResource, ptr %9, i32 0, i32 2
  %21 = load ptr, ptr %20, align 8, !tbaa !55
  store ptr %21, ptr %7, align 8, !tbaa !24
  br label %22

22:                                               ; preds = %39, %19
  %23 = load ptr, ptr %7, align 8, !tbaa !24
  %24 = icmp ne ptr %23, null
  br i1 %24, label %26, label %25

25:                                               ; preds = %22
  call void @llvm.lifetime.end.p0(i64 8, ptr %7) #3
  br label %43

26:                                               ; preds = %22
  %27 = load ptr, ptr %7, align 8, !tbaa !24
  %28 = load ptr, ptr %4, align 8, !tbaa !39
  call void @_ZN9SResource7write16EP7SRBRoot(ptr noundef nonnull align 8 dereferenceable(56) %27, ptr noundef %28)
  %29 = load ptr, ptr %7, align 8, !tbaa !24
  %30 = getelementptr inbounds nuw %struct.SResource, ptr %29, i32 0, i32 6
  %31 = load i32, ptr %30, align 8, !tbaa !36
  %32 = load i32, ptr %5, align 4, !tbaa !23
  %33 = or i32 %32, %31
  store i32 %33, ptr %5, align 4, !tbaa !23
  %34 = load ptr, ptr %7, align 8, !tbaa !24
  %35 = getelementptr inbounds nuw %struct.SResource, ptr %34, i32 0, i32 4
  %36 = load i32, ptr %35, align 8, !tbaa !34
  %37 = load i32, ptr %6, align 4, !tbaa !23
  %38 = or i32 %37, %36
  store i32 %38, ptr %6, align 4, !tbaa !23
  br label %39

39:                                               ; preds = %26
  %40 = load ptr, ptr %7, align 8, !tbaa !24
  %41 = getelementptr inbounds nuw %struct.SResource, ptr %40, i32 0, i32 8
  %42 = load ptr, ptr %41, align 8, !tbaa !38
  store ptr %42, ptr %7, align 8, !tbaa !24
  br label %22, !llvm.loop !127

43:                                               ; preds = %25
  %44 = getelementptr inbounds nuw %class.ContainerResource, ptr %9, i32 0, i32 1
  %45 = load i32, ptr %44, align 8, !tbaa !61
  %46 = load ptr, ptr %4, align 8, !tbaa !39
  %47 = getelementptr inbounds nuw %struct.SRBRoot, ptr %46, i32 0, i32 3
  %48 = load i32, ptr %47, align 4, !tbaa !128
  %49 = icmp ugt i32 %45, %48
  br i1 %49, label %50, label %55

50:                                               ; preds = %43
  %51 = getelementptr inbounds nuw %class.ContainerResource, ptr %9, i32 0, i32 1
  %52 = load i32, ptr %51, align 8, !tbaa !61
  %53 = load ptr, ptr %4, align 8, !tbaa !39
  %54 = getelementptr inbounds nuw %struct.SRBRoot, ptr %53, i32 0, i32 3
  store i32 %52, ptr %54, align 4, !tbaa !128
  br label %55

55:                                               ; preds = %50, %43
  %56 = getelementptr inbounds nuw %class.ContainerResource, ptr %9, i32 0, i32 1
  %57 = load i32, ptr %56, align 8, !tbaa !61
  %58 = icmp ule i32 %57, 65535
  br i1 %58, label %59, label %103

59:                                               ; preds = %55
  %60 = load i32, ptr %5, align 4, !tbaa !23
  %61 = icmp sge i32 %60, 0
  br i1 %61, label %62, label %103

62:                                               ; preds = %59
  %63 = load i32, ptr %6, align 4, !tbaa !23
  %64 = icmp sge i32 %63, 0
  br i1 %64, label %65, label %100

65:                                               ; preds = %62
  %66 = load i32, ptr @_ZL14gFormatVersion, align 4, !tbaa !23
  %67 = icmp sgt i32 %66, 1
  br i1 %67, label %68, label %100

68:                                               ; preds = %65
  %69 = load ptr, ptr %4, align 8, !tbaa !39
  %70 = getelementptr inbounds nuw %struct.SRBRoot, ptr %69, i32 0, i32 14
  %71 = call noundef i32 @_ZNK6icu_7713UnicodeString6lengthEv(ptr noundef nonnull align 8 dereferenceable(64) %70)
  %72 = or i32 1342177280, %71
  %73 = getelementptr inbounds nuw %struct.SResource, ptr %9, i32 0, i32 3
  store i32 %72, ptr %73, align 4, !tbaa !33
  %74 = load ptr, ptr %4, align 8, !tbaa !39
  %75 = getelementptr inbounds nuw %struct.SRBRoot, ptr %74, i32 0, i32 14
  %76 = getelementptr inbounds nuw %class.ContainerResource, ptr %9, i32 0, i32 1
  %77 = load i32, ptr %76, align 8, !tbaa !61
  %78 = trunc i32 %77 to i16
  %79 = call noundef nonnull align 8 dereferenceable(64) ptr @_ZN6icu_7713UnicodeString6appendEDs(ptr noundef nonnull align 8 dereferenceable(64) %75, i16 noundef zeroext %78)
  call void @llvm.lifetime.start.p0(i64 8, ptr %8) #3
  %80 = getelementptr inbounds nuw %class.ContainerResource, ptr %9, i32 0, i32 2
  %81 = load ptr, ptr %80, align 8, !tbaa !55
  store ptr %81, ptr %8, align 8, !tbaa !24
  br label %82

82:                                               ; preds = %94, %68
  %83 = load ptr, ptr %8, align 8, !tbaa !24
  %84 = icmp ne ptr %83, null
  br i1 %84, label %86, label %85

85:                                               ; preds = %82
  call void @llvm.lifetime.end.p0(i64 8, ptr %8) #3
  br label %98

86:                                               ; preds = %82
  %87 = load ptr, ptr %4, align 8, !tbaa !39
  %88 = getelementptr inbounds nuw %struct.SRBRoot, ptr %87, i32 0, i32 14
  %89 = load ptr, ptr %8, align 8, !tbaa !24
  %90 = getelementptr inbounds nuw %struct.SResource, ptr %89, i32 0, i32 6
  %91 = load i32, ptr %90, align 8, !tbaa !36
  %92 = trunc i32 %91 to i16
  %93 = call noundef nonnull align 8 dereferenceable(64) ptr @_ZN6icu_7713UnicodeString6appendEDs(ptr noundef nonnull align 8 dereferenceable(64) %88, i16 noundef zeroext %92)
  br label %94

94:                                               ; preds = %86
  %95 = load ptr, ptr %8, align 8, !tbaa !24
  %96 = getelementptr inbounds nuw %struct.SResource, ptr %95, i32 0, i32 8
  %97 = load ptr, ptr %96, align 8, !tbaa !38
  store ptr %97, ptr %8, align 8, !tbaa !24
  br label %82, !llvm.loop !129

98:                                               ; preds = %85
  %99 = load ptr, ptr %4, align 8, !tbaa !39
  call void @_ZN17ContainerResource13writeAllRes16EP7SRBRoot(ptr noundef nonnull align 8 dereferenceable(72) %9, ptr noundef %99)
  br label %102

100:                                              ; preds = %65, %62
  %101 = getelementptr inbounds nuw %class.TableResource, ptr %9, i32 0, i32 1
  store i8 2, ptr %101, align 8, !tbaa !130
  br label %102

102:                                              ; preds = %100, %98
  br label %105

103:                                              ; preds = %59, %55
  %104 = getelementptr inbounds nuw %class.TableResource, ptr %9, i32 0, i32 1
  store i8 4, ptr %104, align 8, !tbaa !130
  br label %105

105:                                              ; preds = %103, %102
  call void @llvm.lifetime.end.p0(i64 4, ptr %6) #3
  call void @llvm.lifetime.end.p0(i64 4, ptr %5) #3
  br label %106

106:                                              ; preds = %105, %16
  ret void
}