; Function Attrs: mustprogress uwtable
define dso_local void @_ZN13TableResource13handleWrite16EP7SRBRoot(ptr noundef nonnull align 8 captures(none) dereferenceable(88) %0, ptr noundef %1) unnamed_addr #7 align 2 {
  %3 = alloca i16, align 2
  %4 = alloca i16, align 2
  %5 = alloca i16, align 2
  %6 = getelementptr inbounds nuw i8, ptr %0, i64 56
  %7 = load i32, ptr %6, align 8, !tbaa !42
  %8 = icmp eq i32 %7, 0
  %9 = load i32, ptr @_ZL14gFormatVersion, align 4
  %10 = icmp sgt i32 %9, 1
  %or.cond = select i1 %8, i1 %10, i1 false
  br i1 %or.cond, label %11, label %14

11:                                               ; preds = %2
  %12 = getelementptr inbounds nuw i8, ptr %0, i64 12
  store i32 536870912, ptr %12, align 4, !tbaa !20
  %13 = getelementptr inbounds nuw i8, ptr %0, i64 9
  store i8 1, ptr %13, align 1, !tbaa !17
  br label %64

14:                                               ; preds = %2
  %15 = getelementptr inbounds nuw i8, ptr %0, i64 64
  %.02429 = load ptr, ptr %15, align 8, !tbaa !74
  %.not30 = icmp eq ptr %.02429, null
  br i1 %.not30, label %._crit_edge, label %.lr.ph

._crit_edge.loopexit:                             ; preds = %.lr.ph
  %.pre = load i32, ptr %6, align 8, !tbaa !42
  %16 = icmp sgt i32 %24, -1
  %17 = icmp sgt i32 %27, -1
  br label %._crit_edge

._crit_edge:                                      ; preds = %._crit_edge.loopexit, %14
  %18 = phi i32 [ %7, %14 ], [ %.pre, %._crit_edge.loopexit ]
  %.026.lcssa = phi i1 [ true, %14 ], [ %16, %._crit_edge.loopexit ]
  %.025.lcssa = phi i1 [ true, %14 ], [ %17, %._crit_edge.loopexit ]
  %19 = getelementptr inbounds nuw i8, ptr %1, i64 20
  %20 = load i32, ptr %19, align 4, !tbaa !89
  %21 = icmp ugt i32 %18, %20
  br i1 %21, label %29, label %30

.lr.ph:                                           ; preds = %14, %.lr.ph
  %.02433 = phi ptr [ %.024, %.lr.ph ], [ %.02429, %14 ]
  %.02532 = phi i32 [ %27, %.lr.ph ], [ 0, %14 ]
  %.02631 = phi i32 [ %24, %.lr.ph ], [ 0, %14 ]
  tail call void @_ZN9SResource7write16EP7SRBRoot(ptr noundef nonnull align 8 dereferenceable(56) %.02433, ptr noundef %1)
  %22 = getelementptr inbounds nuw i8, ptr %.02433, i64 24
  %23 = load i32, ptr %22, align 8, !tbaa !37
  %24 = or i32 %23, %.02631
  %25 = getelementptr inbounds nuw i8, ptr %.02433, i64 16
  %26 = load i32, ptr %25, align 8, !tbaa !21
  %27 = or i32 %26, %.02532
  %28 = getelementptr inbounds nuw i8, ptr %.02433, i64 32
  %.024 = load ptr, ptr %28, align 8, !tbaa !74
  %.not = icmp eq ptr %.024, null
  br i1 %.not, label %._crit_edge.loopexit, label %.lr.ph, !llvm.loop !90

29:                                               ; preds = %._crit_edge
  store i32 %18, ptr %19, align 4, !tbaa !89
  br label %30

30:                                               ; preds = %29, %._crit_edge
  %31 = icmp ult i32 %18, 65536
  %or.cond3 = select i1 %31, i1 %.026.lcssa, i1 false
  br i1 %or.cond3, label %32, label %62

32:                                               ; preds = %30
  %33 = load i32, ptr @_ZL14gFormatVersion, align 4
  %34 = icmp sgt i32 %33, 1
  %or.cond5 = select i1 %.025.lcssa, i1 %34, i1 false
  br i1 %or.cond5, label %35, label %60

35:                                               ; preds = %32
  %36 = getelementptr inbounds nuw i8, ptr %1, i64 72
  %37 = getelementptr inbounds nuw i8, ptr %1, i64 80
  %38 = load i16, ptr %37, align 8, !tbaa !4
  %39 = icmp slt i16 %38, 0
  %40 = ashr i16 %38, 5
  %41 = sext i16 %40 to i32
  %42 = getelementptr inbounds nuw i8, ptr %1, i64 84
  %43 = load i32, ptr %42, align 4
  %44 = select i1 %39, i32 %43, i32 %41
  %45 = or i32 %44, 1342177280
  %46 = getelementptr inbounds nuw i8, ptr %0, i64 12
  store i32 %45, ptr %46, align 4, !tbaa !20
  %47 = trunc nuw i32 %18 to i16
  call void @llvm.lifetime.start.p0(i64 2, ptr nonnull %5)
  store i16 %47, ptr %5, align 2, !tbaa !70
  %48 = call noundef nonnull align 8 dereferenceable(64) ptr @_ZN6icu_7713UnicodeString8doAppendEPKDsii(ptr noundef nonnull align 8 dereferenceable(64) %36, ptr noundef nonnull %5, i32 noundef 0, i32 noundef 1)
  call void @llvm.lifetime.end.p0(i64 2, ptr nonnull %5)
  %.035 = load ptr, ptr %15, align 8, !tbaa !74
  %.not2836 = icmp eq ptr %.035, null
  br i1 %.not2836, label %_ZN17ContainerResource13writeAllRes16EP7SRBRoot.exit, label %.lr.ph39

._crit_edge40:                                    ; preds = %.lr.ph39
  %.05.i.pre = load ptr, ptr %15, align 8, !tbaa !74
  %.not6.i = icmp eq ptr %.05.i.pre, null
  br i1 %.not6.i, label %_ZN17ContainerResource13writeAllRes16EP7SRBRoot.exit, label %.lr.ph.i

.lr.ph.i:                                         ; preds = %._crit_edge40, %.lr.ph.i
  %.07.i = phi ptr [ %.0.i, %.lr.ph.i ], [ %.05.i.pre, %._crit_edge40 ]
  %49 = getelementptr inbounds nuw i8, ptr %.07.i, i64 16
  %50 = load i32, ptr %49, align 8, !tbaa !21
  %51 = trunc i32 %50 to i16
  call void @llvm.lifetime.start.p0(i64 2, ptr nonnull %4)
  store i16 %51, ptr %4, align 2, !tbaa !70
  %52 = call noundef nonnull align 8 dereferenceable(64) ptr @_ZN6icu_7713UnicodeString8doAppendEPKDsii(ptr noundef nonnull align 8 dereferenceable(64) %36, ptr noundef nonnull %4, i32 noundef 0, i32 noundef 1)
  call void @llvm.lifetime.end.p0(i64 2, ptr nonnull %4)
  %53 = getelementptr inbounds nuw i8, ptr %.07.i, i64 32
  %.0.i = load ptr, ptr %53, align 8, !tbaa !74
  %.not.i = icmp eq ptr %.0.i, null
  br i1 %.not.i, label %_ZN17ContainerResource13writeAllRes16EP7SRBRoot.exit, label %.lr.ph.i, !llvm.loop !86

_ZN17ContainerResource13writeAllRes16EP7SRBRoot.exit: ; preds = %.lr.ph.i, %35, %._crit_edge40
  %54 = getelementptr inbounds nuw i8, ptr %0, i64 9
  store i8 1, ptr %54, align 1, !tbaa !17
  br label %64

.lr.ph39:                                         ; preds = %35, %.lr.ph39
  %.037 = phi ptr [ %.0, %.lr.ph39 ], [ %.035, %35 ]
  %55 = getelementptr inbounds nuw i8, ptr %.037, i64 24
  %56 = load i32, ptr %55, align 8, !tbaa !37
  %57 = trunc i32 %56 to i16
  call void @llvm.lifetime.start.p0(i64 2, ptr nonnull %3)
  store i16 %57, ptr %3, align 2, !tbaa !70
  %58 = call noundef nonnull align 8 dereferenceable(64) ptr @_ZN6icu_7713UnicodeString8doAppendEPKDsii(ptr noundef nonnull align 8 dereferenceable(64) %36, ptr noundef nonnull %3, i32 noundef 0, i32 noundef 1)
  call void @llvm.lifetime.end.p0(i64 2, ptr nonnull %3)
  %59 = getelementptr inbounds nuw i8, ptr %.037, i64 32
  %.0 = load ptr, ptr %59, align 8, !tbaa !74
  %.not28 = icmp eq ptr %.0, null
  br i1 %.not28, label %._crit_edge40, label %.lr.ph39, !llvm.loop !91

60:                                               ; preds = %32
  %61 = getelementptr inbounds nuw i8, ptr %0, i64 72
  store i8 2, ptr %61, align 8, !tbaa !92
  br label %64

62:                                               ; preds = %30
  %63 = getelementptr inbounds nuw i8, ptr %0, i64 72
  store i8 4, ptr %63, align 8, !tbaa !92
  br label %64

64:                                               ; preds = %62, %60, %_ZN17ContainerResource13writeAllRes16EP7SRBRoot.exit, %11
  ret void
}